#include <math.h>
#include <stdio.h>
#include <stdlib.h>
#include <string.h>
#include <iostream>
using namespace std;

/*
 * 1090 ????.cpp
 *
 *  Created on: 2010-11-26
 *      Author: ???
 */
int f(int a,int min)               //???a???????min??????
{
	int j,num;                     //j????num????
	if (a<min) return 0;           //??a??min?????????????
	num=1;                         //???????
	for (j=min;j<a;j++)            //????????
		if (a%j==0) num=num+f(a/j,j);           //???????????
	return num;                    //????
}

int main()
{
	int n,i,out,a;                //n???????out???????a??????
	cin>>n;
	for (i=0;i<n;i++)
	{
		cin>>a;
		out=f(a,2);               //??????
		cout<<out<<endl;
	}
	return 0;
}